; ModuleID = '55/991.cpp'
source_filename = "55/991.cpp"
target datalayout = "e-m:e-p270:32:32-p271:32:32-p272:64:64-i64:64-f80:128-n8:16:32:64-S128"
target triple = "x86_64-pc-linux-gnu"

%"class.std::ios_base::Init" = type { i8 }
%"class.std::basic_istream" = type { i32 (...)**, i64, %"class.std::basic_ios" }
%"class.std::basic_ios" = type { %"class.std::ios_base", %"class.std::basic_ostream"*, i8, i8, %"class.std::basic_streambuf"*, %"class.std::ctype"*, %"class.std::num_put"*, %"class.std::num_get"* }
%"class.std::ios_base" = type { i32 (...)**, i64, i64, i32, i32, i32, %"struct.std::ios_base::_Callback_list"*, %"struct.std::ios_base::_Words", [8 x %"struct.std::ios_base::_Words"], i32, %"struct.std::ios_base::_Words"*, %"class.std::locale" }
%"struct.std::ios_base::_Callback_list" = type { %"struct.std::ios_base::_Callback_list"*, void (i32, %"class.std::ios_base"*, i32)*, i32, i32 }
%"struct.std::ios_base::_Words" = type { i8*, i64 }
%"class.std::locale" = type { %"class.std::locale::_Impl"* }
%"class.std::locale::_Impl" = type { i32, %"class.std::locale::facet"**, i64, %"class.std::locale::facet"**, i8** }
%"class.std::locale::facet" = type <{ i32 (...)**, i32, [4 x i8] }>
%"class.std::basic_ostream" = type { i32 (...)**, %"class.std::basic_ios" }
%"class.std::basic_streambuf" = type { i32 (...)**, i8*, i8*, i8*, i8*, i8*, i8*, %"class.std::locale" }
%"class.std::ctype" = type <{ %"class.std::locale::facet.base", [4 x i8], %struct.__locale_struct*, i8, [7 x i8], i32*, i32*, i16*, i8, [256 x i8], [256 x i8], i8, [6 x i8] }>
%"class.std::locale::facet.base" = type <{ i32 (...)**, i32 }>
%struct.__locale_struct = type { [13 x %struct.__locale_data*], i16*, i32*, i32*, [13 x i8*] }
%struct.__locale_data = type opaque
%"class.std::num_put" = type { %"class.std::locale::facet.base", [4 x i8] }
%"class.std::num_get" = type { %"class.std::locale::facet.base", [4 x i8] }

@_ZStL8__ioinit = internal global %"class.std::ios_base::Init" zeroinitializer, align 1
@__dso_handle = external hidden global i8
@_ZSt3cin = external dso_local global %"class.std::basic_istream", align 8
@_ZSt4cout = external dso_local global %"class.std::basic_ostream", align 8
@llvm.global_ctors = appending global [1 x { i32, void ()*, i8* }] [{ i32, void ()*, i8* } { i32 65535, void ()* @_GLOBAL__sub_I_991.cpp, i8* null }]

; Function Attrs: noinline uwtable
define internal void @__cxx_global_var_init() #0 section ".text.startup" {
  call void @_ZNSt8ios_base4InitC1Ev(%"class.std::ios_base::Init"* @_ZStL8__ioinit)
  %1 = call i32 @__cxa_atexit(void (i8*)* bitcast (void (%"class.std::ios_base::Init"*)* @_ZNSt8ios_base4InitD1Ev to void (i8*)*), i8* getelementptr inbounds (%"class.std::ios_base::Init", %"class.std::ios_base::Init"* @_ZStL8__ioinit, i32 0, i32 0), i8* @__dso_handle) #3
  ret void
}

declare dso_local void @_ZNSt8ios_base4InitC1Ev(%"class.std::ios_base::Init"*) unnamed_addr #1

; Function Attrs: nounwind
declare dso_local void @_ZNSt8ios_base4InitD1Ev(%"class.std::ios_base::Init"*) unnamed_addr #2

; Function Attrs: nounwind
declare dso_local i32 @__cxa_atexit(void (i8*)*, i8*, i8*) #3

; Function Attrs: noinline norecurse uwtable
define dso_local i32 @main() #4 {
  %1 = alloca i32, align 4
  %2 = alloca i32, align 4
  %3 = alloca i32, align 4
  %4 = alloca i32, align 4
  %5 = alloca i32, align 4
  %6 = alloca i32, align 4
  %7 = alloca double, align 8
  %8 = alloca double, align 8
  %9 = alloca [100 x i8], align 16
  %10 = alloca [100 x i8], align 16
  store i32 0, i32* %1, align 4
  store i32 0, i32* %4, align 4
  store i32 0, i32* %5, align 4
  store i32 0, i32* %6, align 4
  %11 = call dereferenceable(280) %"class.std::basic_istream"* @_ZNSirsERi(%"class.std::basic_istream"* @_ZSt3cin, i32* dereferenceable(4) %2)
  %12 = getelementptr inbounds [100 x i8], [100 x i8]* %9, i64 0, i64 0
  %13 = call dereferenceable(280) %"class.std::basic_istream"* @_ZStrsIcSt11char_traitsIcEERSt13basic_istreamIT_T0_ES6_PS3_(%"class.std::basic_istream"* dereferenceable(280) %11, i8* %12)
  %14 = call dereferenceable(280) %"class.std::basic_istream"* @_ZNSirsERi(%"class.std::basic_istream"* %13, i32* dereferenceable(4) %3)
  %15 = getelementptr inbounds [100 x i8], [100 x i8]* %9, i64 0, i64 0
  %16 = call i64 @strlen(i8* %15) #6
  %17 = uitofp i64 %16 to double
  store double %17, double* %8, align 8
  store i32 0, i32* %4, align 4
  br label %18

18:                                               ; preds = %91, %0
  %19 = load i32, i32* %4, align 4
  %20 = sitofp i32 %19 to double
  %21 = load double, double* %8, align 8
  %22 = fcmp olt double %20, %21
  br i1 %22, label %23, label %94

23:                                               ; preds = %18
  %24 = load i32, i32* %4, align 4
  %25 = sext i32 %24 to i64
  %26 = getelementptr inbounds [100 x i8], [100 x i8]* %9, i64 0, i64 %25
  %27 = load i8, i8* %26, align 1
  %28 = sext i8 %27 to i32
  %29 = icmp sge i32 %28, 65
  br i1 %29, label %30, label %45

30:                                               ; preds = %23
  %31 = load i32, i32* %4, align 4
  %32 = sext i32 %31 to i64
  %33 = getelementptr inbounds [100 x i8], [100 x i8]* %9, i64 0, i64 %32
  %34 = load i8, i8* %33, align 1
  %35 = sext i8 %34 to i32
  %36 = icmp sle i32 %35, 90
  br i1 %36, label %37, label %45

37:                                               ; preds = %30
  %38 = load i32, i32* %4, align 4
  %39 = sext i32 %38 to i64
  %40 = getelementptr inbounds [100 x i8], [100 x i8]* %9, i64 0, i64 %39
  %41 = load i8, i8* %40, align 1
  %42 = sext i8 %41 to i32
  %43 = sub nsw i32 %42, 55
  %44 = sitofp i32 %43 to double
  store double %44, double* %7, align 8
  br label %76

45:                                               ; preds = %30, %23
  %46 = load i32, i32* %4, align 4
  %47 = sext i32 %46 to i64
  %48 = getelementptr inbounds [100 x i8], [100 x i8]* %9, i64 0, i64 %47
  %49 = load i8, i8* %48, align 1
  %50 = sext i8 %49 to i32
  %51 = icmp sge i32 %50, 97
  br i1 %51, label %52, label %67

52:                                               ; preds = %45
  %53 = load i32, i32* %4, align 4
  %54 = sext i32 %53 to i64
  %55 = getelementptr inbounds [100 x i8], [100 x i8]* %9, i64 0, i64 %54
  %56 = load i8, i8* %55, align 1
  %57 = sext i8 %56 to i32
  %58 = icmp sle i32 %57, 122
  br i1 %58, label %59, label %67

59:                                               ; preds = %52
  %60 = load i32, i32* %4, align 4
  %61 = sext i32 %60 to i64
  %62 = getelementptr inbounds [100 x i8], [100 x i8]* %9, i64 0, i64 %61
  %63 = load i8, i8* %62, align 1
  %64 = sext i8 %63 to i32
  %65 = sub nsw i32 %64, 87
  %66 = sitofp i32 %65 to double
  store double %66, double* %7, align 8
  br label %75

67:                                               ; preds = %52, %45
  %68 = load i32, i32* %4, align 4
  %69 = sext i32 %68 to i64
  %70 = getelementptr inbounds [100 x i8], [100 x i8]* %9, i64 0, i64 %69
  %71 = load i8, i8* %70, align 1
  %72 = sext i8 %71 to i32
  %73 = sub nsw i32 %72, 48
  %74 = sitofp i32 %73 to double
  store double %74, double* %7, align 8
  br label %75

75:                                               ; preds = %67, %59
  br label %76

76:                                               ; preds = %75, %37
  %77 = load i32, i32* %6, align 4
  %78 = sitofp i32 %77 to double
  %79 = load double, double* %7, align 8
  %80 = load i32, i32* %2, align 4
  %81 = sitofp i32 %80 to double
  %82 = load double, double* %8, align 8
  %83 = load i32, i32* %4, align 4
  %84 = sitofp i32 %83 to double
  %85 = fsub double %82, %84
  %86 = fsub double %85, 1.000000e+00
  %87 = call double @pow(double %81, double %86) #3
  %88 = fmul double %79, %87
  %89 = fadd double %78, %88
  %90 = fptosi double %89 to i32
  store i32 %90, i32* %6, align 4
  br label %91

91:                                               ; preds = %76
  %92 = load i32, i32* %4, align 4
  %93 = add nsw i32 %92, 1
  store i32 %93, i32* %4, align 4
  br label %18

94:                                               ; preds = %18
  br label %95

95:                                               ; preds = %100, %94
  %96 = load i32, i32* %6, align 4
  %97 = load i32, i32* %3, align 4
  %98 = sdiv i32 %96, %97
  %99 = icmp ne i32 %98, 0
  br i1 %99, label %100, label %113

100:                                              ; preds = %95
  %101 = load i32, i32* %6, align 4
  %102 = load i32, i32* %3, align 4
  %103 = srem i32 %101, %102
  %104 = trunc i32 %103 to i8
  %105 = load i32, i32* %5, align 4
  %106 = sext i32 %105 to i64
  %107 = getelementptr inbounds [100 x i8], [100 x i8]* %10, i64 0, i64 %106
  store i8 %104, i8* %107, align 1
  %108 = load i32, i32* %6, align 4
  %109 = load i32, i32* %3, align 4
  %110 = sdiv i32 %108, %109
  store i32 %110, i32* %6, align 4
  %111 = load i32, i32* %5, align 4
  %112 = add nsw i32 %111, 1
  store i32 %112, i32* %5, align 4
  br label %95

113:                                              ; preds = %95
  %114 = load i32, i32* %6, align 4
  %115 = load i32, i32* %3, align 4
  %116 = srem i32 %114, %115
  %117 = trunc i32 %116 to i8
  %118 = load i32, i32* %5, align 4
  %119 = sext i32 %118 to i64
  %120 = getelementptr inbounds [100 x i8], [100 x i8]* %10, i64 0, i64 %119
  store i8 %117, i8* %120, align 1
  br label %121

121:                                              ; preds = %147, %113
  %122 = load i32, i32* %5, align 4
  %123 = icmp sge i32 %122, 0
  br i1 %123, label %124, label %155

124:                                              ; preds = %121
  %125 = load i32, i32* %5, align 4
  %126 = sext i32 %125 to i64
  %127 = getelementptr inbounds [100 x i8], [100 x i8]* %10, i64 0, i64 %126
  %128 = load i8, i8* %127, align 1
  %129 = sext i8 %128 to i32
  %130 = icmp sgt i32 %129, 9
  br i1 %130, label %131, label %139

131:                                              ; preds = %124
  %132 = load i32, i32* %5, align 4
  %133 = sext i32 %132 to i64
  %134 = getelementptr inbounds [100 x i8], [100 x i8]* %10, i64 0, i64 %133
  %135 = load i8, i8* %134, align 1
  %136 = sext i8 %135 to i32
  %137 = add nsw i32 %136, 55
  %138 = trunc i32 %137 to i8
  store i8 %138, i8* %134, align 1
  br label %147

139:                                              ; preds = %124
  %140 = load i32, i32* %5, align 4
  %141 = sext i32 %140 to i64
  %142 = getelementptr inbounds [100 x i8], [100 x i8]* %10, i64 0, i64 %141
  %143 = load i8, i8* %142, align 1
  %144 = sext i8 %143 to i32
  %145 = add nsw i32 %144, 48
  %146 = trunc i32 %145 to i8
  store i8 %146, i8* %142, align 1
  br label %147

147:                                              ; preds = %139, %131
  %148 = load i32, i32* %5, align 4
  %149 = sext i32 %148 to i64
  %150 = getelementptr inbounds [100 x i8], [100 x i8]* %10, i64 0, i64 %149
  %151 = load i8, i8* %150, align 1
  %152 = call dereferenceable(272) %"class.std::basic_ostream"* @_ZStlsISt11char_traitsIcEERSt13basic_ostreamIcT_ES5_c(%"class.std::basic_ostream"* dereferenceable(272) @_ZSt4cout, i8 signext %151)
  %153 = load i32, i32* %5, align 4
  %154 = add nsw i32 %153, -1
  store i32 %154, i32* %5, align 4
  br label %121

155:                                              ; preds = %121
  ret i32 0
}

declare dso_local dereferenceable(280) %"class.std::basic_istream"* @_ZStrsIcSt11char_traitsIcEERSt13basic_istreamIT_T0_ES6_PS3_(%"class.std::basic_istream"* dereferenceable(280), i8*) #1

declare dso_local dereferenceable(280) %"class.std::basic_istream"* @_ZNSirsERi(%"class.std::basic_istream"*, i32* dereferenceable(4)) #1

; Function Attrs: nounwind readonly
declare dso_local i64 @strlen(i8*) #5

; Function Attrs: nounwind
declare dso_local double @pow(double, double) #2

declare dso_local dereferenceable(272) %"class.std::basic_ostream"* @_ZStlsISt11char_traitsIcEERSt13basic_ostreamIcT_ES5_c(%"class.std::basic_ostream"* dereferenceable(272), i8 signext) #1

; Function Attrs: noinline uwtable
define internal void @_GLOBAL__sub_I_991.cpp() #0 section ".text.startup" {
  call void @__cxx_global_var_init()
  ret void
}


!llvm.module.flags = !{!0}
!llvm.ident = !{!1}

!0 = !{i32 1, !"wchar_size", i32 4}
!1 = !{!"clang version 10.0.0-4ubuntu1 "}
